; Function Attrs: nounwind sspstrong uwtable
define internal i64 @ossl_asn1obj_get_oid(i64 noundef %0) #0 {
  %2 = alloca i64, align 8
  %3 = alloca i32, align 4
  call void @llvm.lifetime.start.p0(i64 4, ptr nonnull %3) #9
  %4 = load i64, ptr @sivVALUE, align 8, !tbaa !17
  %5 = tail call i64 @rb_attr_get(i64 noundef %0, i64 noundef %4) #9
  call void @llvm.lifetime.start.p0(i64 8, ptr nonnull %2)
  store i64 %5, ptr %2, align 8, !tbaa !17
  %6 = call ptr @rb_string_value_cstr(ptr noundef nonnull %2) #9
  %7 = load i64, ptr %2, align 8, !tbaa !17
  %8 = inttoptr i64 %7 to ptr
  %9 = load i64, ptr %8, align 8, !tbaa !32, !noalias !83
  %10 = and i64 %9, 8192
  %.not.i.i.i = icmp eq i64 %10, 0
  %11 = getelementptr inbounds nuw i8, ptr %8, i64 24
  br i1 %.not.i.i.i, label %RSTRING_PTR.exit.i, label %12

12:                                               ; preds = %1
  %.sroa.2.0.copyload.i.i = load ptr, ptr %11, align 8
  br label %RSTRING_PTR.exit.i

RSTRING_PTR.exit.i:                               ; preds = %12, %1
  %.sroa.2.0.i.i = phi ptr [ %.sroa.2.0.copyload.i.i, %12 ], [ %11, %1 ]
  %13 = call ptr @OBJ_txt2obj(ptr noundef %.sroa.2.0.i.i, i32 noundef 0) #9
  %.not.i = icmp eq ptr %13, null
  br i1 %.not.i, label %14, label %obj_to_asn1obj.exit

14:                                               ; preds = %RSTRING_PTR.exit.i
  %15 = load i64, ptr %2, align 8, !tbaa !17
  %16 = inttoptr i64 %15 to ptr
  %17 = load i64, ptr %16, align 8, !tbaa !32, !noalias !86
  %18 = and i64 %17, 8192
  %.not.i.i5.i = icmp eq i64 %18, 0
  %19 = getelementptr inbounds nuw i8, ptr %16, i64 24
  br i1 %.not.i.i5.i, label %21, label %20

20:                                               ; preds = %14
  %.sroa.2.0.copyload.i6.i = load ptr, ptr %19, align 8
  br label %21

21:                                               ; preds = %20, %14
  %.sroa.2.0.i7.i = phi ptr [ %.sroa.2.0.copyload.i6.i, %20 ], [ %19, %14 ]
  %22 = call ptr @OBJ_txt2obj(ptr noundef %.sroa.2.0.i7.i, i32 noundef 1) #9
  %.not4.i = icmp eq ptr %22, null
  br i1 %.not4.i, label %23, label %obj_to_asn1obj.exit

23:                                               ; preds = %21
  %24 = load i64, ptr @eASN1Error, align 8, !tbaa !17
  %25 = load i64, ptr %2, align 8, !tbaa !17
  call void (i64, ptr, ...) @ossl_raise(i64 noundef %24, ptr noundef nonnull @.str.120, i64 noundef %25) #10
  unreachable

obj_to_asn1obj.exit:                              ; preds = %RSTRING_PTR.exit.i, %21
  %.011.i = phi ptr [ %22, %21 ], [ %13, %RSTRING_PTR.exit.i ]
  call void @llvm.lifetime.end.p0(i64 8, ptr nonnull %2)
  %26 = ptrtoint ptr %.011.i to i64
  %27 = call i64 @rb_protect(ptr noundef nonnull @asn1obj_get_oid_i, i64 noundef %26, ptr noundef nonnull %3) #9
  call void @ASN1_OBJECT_free(ptr noundef nonnull %.011.i) #9
  %28 = load i32, ptr %3, align 4, !tbaa !25
  %.not = icmp eq i32 %28, 0
  br i1 %.not, label %30, label %29

29:                                               ; preds = %obj_to_asn1obj.exit
  call void @rb_jump_tag(i32 noundef %28) #10
  unreachable

30:                                               ; preds = %obj_to_asn1obj.exit
  call void @llvm.lifetime.end.p0(i64 4, ptr nonnull %3) #9
  ret i64 %27
}